target datalayout = "e-m:e-p270:32:32-p271:32:32-p272:64:64-i64:64-i128:128-f80:128-n8:16:32:64-S128"
target triple = "x86_64-pc-linux-gnu"

%struct._object = type { %union.anon, ptr }
%union.anon = type { i64 }
%struct.PyVarObject = type { %struct._object, i64 }
%struct._typeobject = type { %struct.PyVarObject, ptr, i64, i64, ptr, i64, ptr, ptr, ptr, ptr, ptr, ptr, ptr, ptr, ptr, ptr, ptr, ptr, ptr, i64, ptr, ptr, ptr, ptr, i64, ptr, ptr, ptr, ptr, ptr, ptr, ptr, ptr, ptr, i64, ptr, ptr, ptr, ptr, ptr, ptr, ptr, ptr, ptr, ptr, ptr, i32, ptr, ptr, i8, i16 }
%struct.PyASCIIObject = type { %struct._object, i64, i64, %struct.anon.47 }
%struct.anon.47 = type { i16, i16 }

@.str.26 = private unnamed_addr constant [22 x i8] c"unicode_escape_encode\00", align 1
@_Py_NoneStruct = external global %struct._object, align 8
@.str.43 = private unnamed_addr constant [4 x i8] c"str\00", align 1
@PyExc_ValueError = external global ptr, align 8
@.str.44 = private unnamed_addr constant [24 x i8] c"embedded null character\00", align 1
@.str.50 = private unnamed_addr constant [11 x i8] c"argument 1\00", align 1
@.str.52 = private unnamed_addr constant [11 x i8] c"argument 2\00", align 1
@.str.53 = private unnamed_addr constant [12 x i8] c"str or None\00", align 1
@.str.55 = private unnamed_addr constant [3 x i8] c"Nn\00", align 1

; Function Attrs: nounwind uwtable
define internal ptr @codec_tuple(ptr noundef %0, i64 noundef %1) #0 {
  %3 = alloca ptr, align 8
  %4 = alloca ptr, align 8
  %5 = alloca i64, align 8
  store ptr %0, ptr %4, align 8, !tbaa !4
  store i64 %1, ptr %5, align 8, !tbaa !11
  %6 = load ptr, ptr %4, align 8, !tbaa !4
  %7 = icmp eq ptr %6, null
  br i1 %7, label %8, label %9

8:                                                ; preds = %2
  store ptr null, ptr %3, align 8
  br label %13

9:                                                ; preds = %2
  %10 = load ptr, ptr %4, align 8, !tbaa !4
  %11 = load i64, ptr %5, align 8, !tbaa !11
  %12 = call ptr (ptr, ...) @Py_BuildValue(ptr noundef @.str.55, ptr noundef %10, i64 noundef %11)
  store ptr %12, ptr %3, align 8
  br label %13

13:                                               ; preds = %9, %8
  %14 = load ptr, ptr %3, align 8
  ret ptr %14
}

; Function Attrs: inlinehint nounwind uwtable
define internal i64 @PyUnicode_GET_LENGTH(ptr noundef %0) #3 {
  %2 = alloca ptr, align 8
  store ptr %0, ptr %2, align 8, !tbaa !4
  %3 = load ptr, ptr %2, align 8, !tbaa !4
  %4 = getelementptr inbounds nuw %struct.PyASCIIObject, ptr %3, i32 0, i32 1
  %5 = load i64, ptr %4, align 8, !tbaa !38
  ret i64 %5
}

; Function Attrs: nounwind uwtable
define internal ptr @_codecs_unicode_escape_encode_impl(ptr noundef %0, ptr noundef %1, ptr noundef %2) #0 {
  %4 = alloca ptr, align 8
  %5 = alloca ptr, align 8
  %6 = alloca ptr, align 8
  store ptr %0, ptr %4, align 8, !tbaa !4
  store ptr %1, ptr %5, align 8, !tbaa !4
  store ptr %2, ptr %6, align 8, !tbaa !9
  %7 = load ptr, ptr %5, align 8, !tbaa !4
  %8 = call ptr @PyUnicode_AsUnicodeEscapeString(ptr noundef %7)
  %9 = load ptr, ptr %5, align 8, !tbaa !4
  %10 = call i64 @PyUnicode_GET_LENGTH(ptr noundef %9)
  %11 = call ptr @codec_tuple(ptr noundef %8, i64 noundef %10)
  ret ptr %11
}

; Function Attrs: inlinehint nounwind uwtable
define internal i32 @PyType_HasFeature(ptr noundef %0, i64 noundef %1) #3 {
  %3 = alloca ptr, align 8
  %4 = alloca i64, align 8
  %5 = alloca i64, align 8
  store ptr %0, ptr %3, align 8, !tbaa !20
  store i64 %1, ptr %4, align 8, !tbaa !11
  call void @llvm.lifetime.start.p0(i64 8, ptr %5) #6
  %6 = load ptr, ptr %3, align 8, !tbaa !20
  %7 = getelementptr inbounds nuw %struct._typeobject, ptr %6, i32 0, i32 19
  %8 = load i64, ptr %7, align 8, !tbaa !22
  store i64 %8, ptr %5, align 8, !tbaa !11
  %9 = load i64, ptr %5, align 8, !tbaa !11
  %10 = load i64, ptr %4, align 8, !tbaa !11
  %11 = and i64 %9, %10
  %12 = icmp ne i64 %11, 0
  %13 = zext i1 %12 to i32
  call void @llvm.lifetime.end.p0(i64 8, ptr %5) #6
  ret i32 %13
}

; Function Attrs: inlinehint nounwind uwtable
define internal ptr @_Py_TYPE(ptr noundef %0) #3 {
  %2 = alloca ptr, align 8
  store ptr %0, ptr %2, align 8, !tbaa !4
  %3 = load ptr, ptr %2, align 8, !tbaa !4
  %4 = getelementptr inbounds nuw %struct._object, ptr %3, i32 0, i32 1
  %5 = load ptr, ptr %4, align 8, !tbaa !30
  ret ptr %5
}

; Function Attrs: nounwind uwtable
define internal ptr @_codecs_unicode_escape_encode(ptr noundef %0, ptr noundef %1, i64 noundef %2) #0 {
  %4 = alloca ptr, align 8
  %5 = alloca ptr, align 8
  %6 = alloca ptr, align 8
  %7 = alloca i64, align 8
  %8 = alloca ptr, align 8
  %9 = alloca ptr, align 8
  %10 = alloca ptr, align 8
  %11 = alloca i64, align 8
  %12 = alloca i32, align 4
  store ptr %0, ptr %5, align 8, !tbaa !4
  store ptr %1, ptr %6, align 8, !tbaa !13
  store i64 %2, ptr %7, align 8, !tbaa !11
  call void @llvm.lifetime.start.p0(i64 8, ptr %8) #6
  store ptr null, ptr %8, align 8, !tbaa !4
  call void @llvm.lifetime.start.p0(i64 8, ptr %9) #6
  call void @llvm.lifetime.start.p0(i64 8, ptr %10) #6
  store ptr null, ptr %10, align 8, !tbaa !9
  %13 = load i64, ptr %7, align 8, !tbaa !11
  %14 = icmp sle i64 1, %13
  br i1 %14, label %15, label %18

15:                                               ; preds = %3
  %16 = load i64, ptr %7, align 8, !tbaa !11
  %17 = icmp sle i64 %16, 2
  br i1 %17, label %23, label %18

18:                                               ; preds = %15, %3
  %19 = load i64, ptr %7, align 8, !tbaa !11
  %20 = call i32 @_PyArg_CheckPositional(ptr noundef @.str.26, i64 noundef %19, i64 noundef 1, i64 noundef 2)
  %21 = icmp ne i32 %20, 0
  br i1 %21, label %23, label %22

22:                                               ; preds = %18
  br label %84

23:                                               ; preds = %18, %15
  %24 = load ptr, ptr %6, align 8, !tbaa !13
  %25 = getelementptr ptr, ptr %24, i64 0
  %26 = load ptr, ptr %25, align 8, !tbaa !4
  %27 = call ptr @_Py_TYPE(ptr noundef %26)
  %28 = call i32 @PyType_HasFeature(ptr noundef %27, i64 noundef 268435456)
  %29 = icmp ne i32 %28, 0
  br i1 %29, label %34, label %30

30:                                               ; preds = %23
  %31 = load ptr, ptr %6, align 8, !tbaa !13
  %32 = getelementptr ptr, ptr %31, i64 0
  %33 = load ptr, ptr %32, align 8, !tbaa !4
  call void @_PyArg_BadArgument(ptr noundef @.str.26, ptr noundef @.str.50, ptr noundef @.str.43, ptr noundef %33)
  br label %84

34:                                               ; preds = %23
  %35 = load ptr, ptr %6, align 8, !tbaa !13
  %36 = getelementptr ptr, ptr %35, i64 0
  %37 = load ptr, ptr %36, align 8, !tbaa !4
  store ptr %37, ptr %9, align 8, !tbaa !4
  %38 = load i64, ptr %7, align 8, !tbaa !11
  %39 = icmp slt i64 %38, 2
  br i1 %39, label %40, label %41

40:                                               ; preds = %34
  br label %79

41:                                               ; preds = %34
  %42 = load ptr, ptr %6, align 8, !tbaa !13
  %43 = getelementptr ptr, ptr %42, i64 1
  %44 = load ptr, ptr %43, align 8, !tbaa !4
  %45 = icmp eq ptr %44, @_Py_NoneStruct
  br i1 %45, label %46, label %47

46:                                               ; preds = %41
  store ptr null, ptr %10, align 8, !tbaa !9
  br label %78

47:                                               ; preds = %41
  %48 = load ptr, ptr %6, align 8, !tbaa !13
  %49 = getelementptr ptr, ptr %48, i64 1
  %50 = load ptr, ptr %49, align 8, !tbaa !4
  %51 = call ptr @_Py_TYPE(ptr noundef %50)
  %52 = call i32 @PyType_HasFeature(ptr noundef %51, i64 noundef 268435456)
  %53 = icmp ne i32 %52, 0
  br i1 %53, label %54, label %73

54:                                               ; preds = %47
  call void @llvm.lifetime.start.p0(i64 8, ptr %11) #6
  %55 = load ptr, ptr %6, align 8, !tbaa !13
  %56 = getelementptr ptr, ptr %55, i64 1
  %57 = load ptr, ptr %56, align 8, !tbaa !4
  %58 = call ptr @PyUnicode_AsUTF8AndSize(ptr noundef %57, ptr noundef %11)
  store ptr %58, ptr %10, align 8, !tbaa !9
  %59 = load ptr, ptr %10, align 8, !tbaa !9
  %60 = icmp eq ptr %59, null
  br i1 %60, label %61, label %62

61:                                               ; preds = %54
  store i32 2, ptr %12, align 4
  br label %70

62:                                               ; preds = %54
  %63 = load ptr, ptr %10, align 8, !tbaa !9
  %64 = call i64 @strlen(ptr noundef %63) #7
  %65 = load i64, ptr %11, align 8, !tbaa !11
  %66 = icmp ne i64 %64, %65
  br i1 %66, label %67, label %69

67:                                               ; preds = %62
  %68 = load ptr, ptr @PyExc_ValueError, align 8, !tbaa !4
  call void @PyErr_SetString(ptr noundef %68, ptr noundef @.str.44)
  store i32 2, ptr %12, align 4
  br label %70

69:                                               ; preds = %62
  store i32 0, ptr %12, align 4
  br label %70

70:                                               ; preds = %67, %61, %69
  call void @llvm.lifetime.end.p0(i64 8, ptr %11) #6
  %71 = load i32, ptr %12, align 4
  switch i32 %71, label %86 [
    i32 0, label %72
    i32 2, label %84
  ]

72:                                               ; preds = %70
  br label %77

73:                                               ; preds = %47
  %74 = load ptr, ptr %6, align 8, !tbaa !13
  %75 = getelementptr ptr, ptr %74, i64 1
  %76 = load ptr, ptr %75, align 8, !tbaa !4
  call void @_PyArg_BadArgument(ptr noundef @.str.26, ptr noundef @.str.52, ptr noundef @.str.53, ptr noundef %76)
  br label %84

77:                                               ; preds = %72
  br label %78

78:                                               ; preds = %77, %46
  br label %79

79:                                               ; preds = %78, %40
  %80 = load ptr, ptr %5, align 8, !tbaa !4
  %81 = load ptr, ptr %9, align 8, !tbaa !4
  %82 = load ptr, ptr %10, align 8, !tbaa !9
  %83 = call ptr @_codecs_unicode_escape_encode_impl(ptr noundef %80, ptr noundef %81, ptr noundef %82)
  store ptr %83, ptr %8, align 8, !tbaa !4
  br label %84

84:                                               ; preds = %79, %70, %73, %30, %22
  %85 = load ptr, ptr %8, align 8, !tbaa !4
  store ptr %85, ptr %4, align 8
  store i32 1, ptr %12, align 4
  br label %86

86:                                               ; preds = %84, %70
  call void @llvm.lifetime.end.p0(i64 8, ptr %10) #6
  call void @llvm.lifetime.end.p0(i64 8, ptr %9) #6
  call void @llvm.lifetime.end.p0(i64 8, ptr %8) #6
  %87 = load ptr, ptr %4, align 8
  ret ptr %87
}